; Function Attrs: mustprogress uwtable
define internal fastcc void @_ZN10OpenSubdiv6v3_6_03Vtr8internal12_GLOBAL__N_115DynamicRelationC2ERSt6vectorIiSaIiEES8_i(ptr noundef nonnull align 8 dereferenceable(72) initializes((0, 24), (32, 36), (40, 48)) %0, ptr noundef nonnull align 8 dereferenceable(24) %1, ptr noundef nonnull align 8 dereferenceable(24) %2, i32 noundef range(i32 2, 7) %3) unnamed_addr #7 align 2 personality ptr @__gxx_personality_v0 {
  store i32 0, ptr %0, align 8
  %5 = getelementptr inbounds nuw i8, ptr %0, i64 4
  store i32 %3, ptr %5, align 4
  %6 = getelementptr inbounds nuw i8, ptr %0, i64 8
  store ptr %1, ptr %6, align 8
  %7 = getelementptr inbounds nuw i8, ptr %0, i64 16
  store ptr %2, ptr %7, align 8
  %8 = getelementptr inbounds nuw i8, ptr %0, i64 32
  store i32 0, ptr %8, align 8
  %9 = getelementptr inbounds nuw i8, ptr %0, i64 40
  store ptr null, ptr %9, align 8
  %10 = getelementptr inbounds nuw i8, ptr %0, i64 48
  store ptr %8, ptr %10, align 8
  %11 = getelementptr inbounds nuw i8, ptr %0, i64 56
  store ptr %8, ptr %11, align 8
  %12 = getelementptr inbounds nuw i8, ptr %0, i64 64
  store i64 0, ptr %12, align 8
  %13 = getelementptr inbounds nuw i8, ptr %1, i64 8
  %14 = load ptr, ptr %13, align 8
  %15 = load ptr, ptr %1, align 8
  %16 = ptrtoint ptr %14 to i64
  %17 = ptrtoint ptr %15 to i64
  %18 = sub i64 %16, %17
  %19 = lshr exact i64 %18, 2
  %20 = trunc i64 %19 to i32
  %21 = sdiv i32 %20, 2
  store i32 %21, ptr %0, align 8
  %22 = icmp sgt i32 %20, 1
  br i1 %22, label %.lr.ph, label %._crit_edge

.lr.ph:                                           ; preds = %4, %.lr.ph
  %indvars.iv = phi i64 [ %indvars.iv.next, %.lr.ph ], [ 0, %4 ]
  %23 = load ptr, ptr %6, align 8
  %24 = shl nuw nsw i64 %indvars.iv, 1
  %25 = load ptr, ptr %23, align 8
  %26 = getelementptr inbounds nuw i32, ptr %25, i64 %24
  store i32 0, ptr %26, align 4
  %27 = load i32, ptr %5, align 4
  %28 = trunc nuw nsw i64 %indvars.iv to i32
  %29 = mul nsw i32 %27, %28
  %30 = load ptr, ptr %6, align 8
  %31 = or disjoint i64 %24, 1
  %32 = load ptr, ptr %30, align 8
  %33 = getelementptr inbounds nuw i32, ptr %32, i64 %31
  store i32 %29, ptr %33, align 4
  %indvars.iv.next = add nuw nsw i64 %indvars.iv, 1
  %34 = load i32, ptr %0, align 8
  %35 = sext i32 %34 to i64
  %36 = icmp slt i64 %indvars.iv.next, %35
  br i1 %36, label %.lr.ph, label %._crit_edge.loopexit, !llvm.loop !71

._crit_edge.loopexit:                             ; preds = %.lr.ph
  %.pre = load ptr, ptr %7, align 8
  %.pre14 = load i32, ptr %5, align 4
  br label %._crit_edge

._crit_edge:                                      ; preds = %._crit_edge.loopexit, %4
  %37 = phi i32 [ %3, %4 ], [ %.pre14, %._crit_edge.loopexit ]
  %38 = phi ptr [ %2, %4 ], [ %.pre, %._crit_edge.loopexit ]
  %.lcssa = phi i32 [ %21, %4 ], [ %34, %._crit_edge.loopexit ]
  %39 = mul nsw i32 %37, %.lcssa
  %40 = sext i32 %39 to i64
  %41 = getelementptr inbounds nuw i8, ptr %38, i64 8
  %42 = load ptr, ptr %41, align 8
  %43 = load ptr, ptr %38, align 8
  %44 = ptrtoint ptr %42 to i64
  %45 = ptrtoint ptr %43 to i64
  %46 = sub i64 %44, %45
  %47 = ashr exact i64 %46, 2
  %48 = icmp ult i64 %47, %40
  br i1 %48, label %49, label %51

49:                                               ; preds = %._crit_edge
  %50 = sub nuw nsw i64 %40, %47
  invoke void @_ZNSt6vectorIiSaIiEE17_M_default_appendEm(ptr noundef nonnull align 8 dereferenceable(24) %38, i64 noundef %50)
          to label %_ZNSt6vectorIiSaIiEE6resizeEm.exit unwind label %56

51:                                               ; preds = %._crit_edge
  %52 = icmp ugt i64 %47, %40
  br i1 %52, label %53, label %_ZNSt6vectorIiSaIiEE6resizeEm.exit

53:                                               ; preds = %51
  %54 = getelementptr inbounds i32, ptr %43, i64 %40
  %.not.i.i = icmp eq ptr %42, %54
  br i1 %.not.i.i, label %_ZNSt6vectorIiSaIiEE6resizeEm.exit, label %55

55:                                               ; preds = %53
  store ptr %54, ptr %41, align 8
  br label %_ZNSt6vectorIiSaIiEE6resizeEm.exit

_ZNSt6vectorIiSaIiEE6resizeEm.exit:               ; preds = %55, %53, %51, %49
  ret void

56:                                               ; preds = %49
  %57 = landingpad { ptr, i32 }
          cleanup
  %58 = getelementptr inbounds nuw i8, ptr %0, i64 24
  tail call void @_ZNSt3mapIiSt6vectorIiSaIiEESt4lessIiESaISt4pairIKiS2_EEED2Ev(ptr noundef nonnull align 8 dereferenceable(48) %58) #25
  resume { ptr, i32 } %57
}